; Function Attrs: mustprogress nofree norecurse nosync nounwind willreturn memory(argmem: write) uwtable
define void @_ZN2cv3dnn14dnn4_v2024122316Image2BlobParamsC2Ev(ptr noundef nonnull writeonly align 8 captures(none) dereferenceable(120) initializes((0, 73), (76, 120)) %0) unnamed_addr #3 align 2 {
  store double 1.000000e+00, ptr %0, align 8, !tbaa !3, !alias.scope !7
  %2 = getelementptr inbounds nuw i8, ptr %0, i64 8
  store double 1.000000e+00, ptr %2, align 8, !tbaa !3, !alias.scope !7
  %3 = getelementptr inbounds nuw i8, ptr %0, i64 16
  store double 1.000000e+00, ptr %3, align 8, !tbaa !3, !alias.scope !7
  %4 = getelementptr inbounds nuw i8, ptr %0, i64 24
  store double 1.000000e+00, ptr %4, align 8, !tbaa !3, !alias.scope !7
  %5 = getelementptr inbounds nuw i8, ptr %0, i64 32
  %6 = getelementptr inbounds nuw i8, ptr %0, i64 76
  tail call void @llvm.memset.p0.i64(ptr noundef nonnull align 8 dereferenceable(41) %5, i8 0, i64 41, i1 false)
  store i32 5, ptr %6, align 4, !tbaa !10
  %7 = getelementptr inbounds nuw i8, ptr %0, i64 80
  store i32 2, ptr %7, align 8, !tbaa !20
  %8 = getelementptr inbounds nuw i8, ptr %0, i64 84
  tail call void @llvm.memset.p0.i64(ptr noundef nonnull align 4 dereferenceable(36) %8, i8 0, i64 36, i1 false)
  ret void
}